target datalayout = "e-m:e-p270:32:32-p271:32:32-p272:64:64-i64:64-i128:128-f80:128-n8:16:32:64-S128"
target triple = "x86_64-pc-linux-gnu"

%struct._value_string = type { i32, ptr }
%struct._packet_info = type { ptr, ptr, i32, i32, %struct.nstime_t, %struct.nstime_t, %struct.nstime_t, i8, ptr, ptr, ptr, ptr, %struct._address, %struct._address, %struct._address, %struct._address, %struct._address, %struct._address, i32, ptr, i8, [3 x i8], %struct.anon, i32, i32, i32, i32, ptr, i8, ptr, ptr, i16, i16, i32, i32, i16, i32, i32, ptr, ptr, ptr, i8, i8, i16, i16, i16, i32, i16, i16, ptr, ptr, ptr, ptr, ptr, i32, i32 }
%struct.nstime_t = type { i64, i32 }
%struct._address = type { i32, i32, ptr, ptr }
%struct.anon = type { i8, [3 x i8] }

@hf_raknet_offline_message_id = internal global i32 0, align 4
@raknet_offline_message_names = internal global [15 x %struct._value_string] zeroinitializer, align 16
@hf_raknet_offline_message_data_id = internal global i32 0, align 4
@hf_raknet_raknet_proto_ver = internal global i32 0, align 4
@hf_raknet_null_padding = internal global i32 0, align 4
@ett_raknet = internal global i32 0, align 4
@proto_raknet = internal global i32 0, align 4
@.str.205 = private unnamed_addr constant [29 x i8] c"Unknown offline message: %#x\00", align 1
@.str.206 = private unnamed_addr constant [25 x i8] c", Offline message ID %#x\00", align 1

; Function Attrs: null_pointer_is_valid sspstrong uwtable
define internal ptr @init_raknet_offline_message(ptr noundef %0, ptr noundef %1, ptr noundef %2, ptr noundef %3) #0 {
  %5 = alloca ptr, align 8
  %6 = alloca ptr, align 8
  %7 = alloca ptr, align 8
  %8 = alloca ptr, align 8
  %9 = alloca ptr, align 8
  %10 = alloca ptr, align 8
  %11 = alloca i8, align 1
  store ptr %0, ptr %5, align 8
  store ptr %1, ptr %6, align 8
  store ptr %2, ptr %7, align 8
  store ptr %3, ptr %8, align 8
  call void @llvm.lifetime.start.p0(i64 8, ptr %9) #6
  call void @llvm.lifetime.start.p0(i64 8, ptr %10) #6
  call void @llvm.lifetime.start.p0(i64 1, ptr %11) #6
  %12 = load ptr, ptr %8, align 8
  store i32 0, ptr %12, align 4
  %13 = load ptr, ptr %7, align 8
  %14 = load i32, ptr @proto_raknet, align 4
  %15 = load ptr, ptr %5, align 8
  %16 = call ptr @proto_tree_add_item(ptr noundef %13, i32 noundef %14, ptr noundef %15, i32 noundef 0, i32 noundef -1, i32 noundef 0)
  store ptr %16, ptr %10, align 8
  %17 = load ptr, ptr %10, align 8
  %18 = load i32, ptr @ett_raknet, align 4
  %19 = call ptr @proto_item_add_subtree(ptr noundef %17, i32 noundef %18)
  store ptr %19, ptr %9, align 8
  %20 = load ptr, ptr %5, align 8
  %21 = load ptr, ptr %8, align 8
  %22 = load i32, ptr %21, align 4
  %23 = call zeroext i8 @tvb_get_uint8(ptr noundef %20, i32 noundef %22)
  store i8 %23, ptr %11, align 1
  %24 = load ptr, ptr %9, align 8
  %25 = load i32, ptr @hf_raknet_offline_message_id, align 4
  %26 = load ptr, ptr %5, align 8
  %27 = load ptr, ptr %8, align 8
  %28 = load i32, ptr %27, align 4
  %29 = call ptr @proto_tree_add_item(ptr noundef %24, i32 noundef %25, ptr noundef %26, i32 noundef %28, i32 noundef 1, i32 noundef 0)
  %30 = load ptr, ptr %8, align 8
  %31 = load i32, ptr %30, align 4
  %32 = add i32 %31, 1
  store i32 %32, ptr %30, align 4
  %33 = load ptr, ptr %6, align 8
  %34 = getelementptr inbounds nuw %struct._packet_info, ptr %33, i32 0, i32 1
  %35 = load ptr, ptr %34, align 8
  %36 = load i8, ptr %11, align 1
  %37 = zext i8 %36 to i32
  %38 = call ptr @val_to_str(i32 noundef %37, ptr noundef @raknet_offline_message_names, ptr noundef @.str.205)
  call void @col_add_str(ptr noundef %35, i32 noundef 25, ptr noundef %38)
  %39 = load ptr, ptr %10, align 8
  %40 = load i8, ptr %11, align 1
  %41 = zext i8 %40 to i32
  call void (ptr, ptr, ...) @proto_item_append_text(ptr noundef %39, ptr noundef @.str.206, i32 noundef %41)
  %42 = load ptr, ptr %9, align 8
  call void @llvm.lifetime.end.p0(i64 1, ptr %11) #6
  call void @llvm.lifetime.end.p0(i64 8, ptr %10) #6
  call void @llvm.lifetime.end.p0(i64 8, ptr %9) #6
  ret ptr %42
}

; Function Attrs: null_pointer_is_valid sspstrong uwtable
define internal i32 @raknet_dissect_open_connection_request_1(ptr noundef %0, ptr noundef %1, ptr noundef %2, ptr noundef %3) #0 {
  %5 = alloca ptr, align 8
  %6 = alloca ptr, align 8
  %7 = alloca ptr, align 8
  %8 = alloca ptr, align 8
  %9 = alloca ptr, align 8
  %10 = alloca i32, align 4
  store ptr %0, ptr %5, align 8
  store ptr %1, ptr %6, align 8
  store ptr %2, ptr %7, align 8
  store ptr %3, ptr %8, align 8
  call void @llvm.lifetime.start.p0(i64 8, ptr %9) #6
  call void @llvm.lifetime.start.p0(i64 4, ptr %10) #6
  %11 = load ptr, ptr %5, align 8
  %12 = load ptr, ptr %6, align 8
  %13 = load ptr, ptr %7, align 8
  %14 = call ptr @init_raknet_offline_message(ptr noundef %11, ptr noundef %12, ptr noundef %13, ptr noundef %10)
  store ptr %14, ptr %9, align 8
  %15 = load ptr, ptr %9, align 8
  %16 = load i32, ptr @hf_raknet_offline_message_data_id, align 4
  %17 = load ptr, ptr %5, align 8
  %18 = load i32, ptr %10, align 4
  %19 = call ptr @proto_tree_add_item(ptr noundef %15, i32 noundef %16, ptr noundef %17, i32 noundef %18, i32 noundef 16, i32 noundef 0)
  %20 = load i32, ptr %10, align 4
  %21 = add i32 %20, 16
  store i32 %21, ptr %10, align 4
  %22 = load ptr, ptr %9, align 8
  %23 = load i32, ptr @hf_raknet_raknet_proto_ver, align 4
  %24 = load ptr, ptr %5, align 8
  %25 = load i32, ptr %10, align 4
  %26 = call ptr @proto_tree_add_item(ptr noundef %22, i32 noundef %23, ptr noundef %24, i32 noundef %25, i32 noundef 1, i32 noundef 0)
  %27 = load i32, ptr %10, align 4
  %28 = add i32 %27, 1
  store i32 %28, ptr %10, align 4
  %29 = load ptr, ptr %9, align 8
  %30 = load i32, ptr @hf_raknet_null_padding, align 4
  %31 = load ptr, ptr %5, align 8
  %32 = load i32, ptr %10, align 4
  %33 = call ptr @proto_tree_add_item(ptr noundef %29, i32 noundef %30, ptr noundef %31, i32 noundef %32, i32 noundef -1, i32 noundef 0)
  %34 = load ptr, ptr %5, align 8
  %35 = call i32 @tvb_reported_length(ptr noundef %34)
  call void @llvm.lifetime.end.p0(i64 4, ptr %10) #6
  call void @llvm.lifetime.end.p0(i64 8, ptr %9) #6
  ret i32 %35
}